target datalayout = "e-m:e-p270:32:32-p271:32:32-p272:64:64-i64:64-i128:128-f80:128-n8:16:32:64-S128"
target triple = "x86_64-pc-linux-gnu"

%struct.expert_field = type { i32, i32 }
%struct._h248_curr_info_t = type { ptr, ptr, ptr, ptr, ptr, ptr, ptr, ptr, ptr, ptr }
%struct._h248_pkg_param_t = type { i32, ptr, ptr, ptr }
%struct._asn1_ctx_t = type { i32, i32, i8, ptr, ptr, ptr, ptr, ptr, %struct.anon.2, %struct.anon.5, %struct.anon.6, ptr }
%struct.anon.2 = type { i32, i8, i8, i8, ptr, ptr, i32, i32, ptr, ptr, ptr, %union.anon }
%union.anon = type { %struct.anon.3 }
%struct.anon.3 = type { ptr }
%struct.anon.5 = type { ptr, ptr, ptr }
%struct.anon.6 = type { i32, i8, ptr, i32, i32, ptr, ptr, ptr, %union.anon.7 }
%union.anon.7 = type { %struct.anon.8 }
%struct.anon.8 = type { ptr }

@ei_h248_octet_string_expected = internal global %struct.expert_field zeroinitializer, align 4
@curr_info = internal global %struct._h248_curr_info_t zeroinitializer, align 8
@.str.1319 = private unnamed_addr constant [79 x i8] c"H.248 BER Error: OctetString expected but Class:%d PC:%d Tag:%d was unexpected\00", align 1

; Function Attrs: nounwind uwtable
define internal i32 @dissect_h248_EventParamValue(i1 noundef zeroext %0, ptr noundef %1, i32 noundef %2, ptr noundef %3, ptr noundef %4, i32 noundef %5) #0 {
  %7 = alloca i32, align 4
  %8 = alloca i8, align 1
  %9 = alloca ptr, align 8
  %10 = alloca i32, align 4
  %11 = alloca ptr, align 8
  %12 = alloca ptr, align 8
  %13 = alloca i32, align 4
  %14 = alloca ptr, align 8
  %15 = alloca i32, align 4
  %16 = alloca i8, align 1
  %17 = alloca i8, align 1
  %18 = alloca i8, align 1
  %19 = alloca i32, align 4
  %20 = alloca i32, align 4
  %21 = zext i1 %0 to i8
  store i8 %21, ptr %8, align 1
  store ptr %1, ptr %9, align 8
  store i32 %2, ptr %10, align 4
  store ptr %3, ptr %11, align 8
  store ptr %4, ptr %12, align 8
  store i32 %5, ptr %13, align 4
  %22 = load ptr, ptr %11, align 8
  %23 = getelementptr inbounds %struct._asn1_ctx_t, ptr %22, i32 0, i32 3
  %24 = load ptr, ptr %23, align 8
  %25 = load ptr, ptr %12, align 8
  %26 = load ptr, ptr %9, align 8
  %27 = load i32, ptr %10, align 4
  %28 = call i32 @dissect_ber_identifier(ptr noundef %24, ptr noundef %25, ptr noundef %26, i32 noundef %27, ptr noundef %16, ptr noundef %17, ptr noundef %19)
  store i32 %28, ptr %10, align 4
  %29 = load ptr, ptr %11, align 8
  %30 = getelementptr inbounds %struct._asn1_ctx_t, ptr %29, i32 0, i32 3
  %31 = load ptr, ptr %30, align 8
  %32 = load ptr, ptr %12, align 8
  %33 = load ptr, ptr %9, align 8
  %34 = load i32, ptr %10, align 4
  %35 = call i32 @dissect_ber_length(ptr noundef %31, ptr noundef %32, ptr noundef %33, i32 noundef %34, ptr noundef %20, ptr noundef %18)
  store i32 %35, ptr %10, align 4
  %36 = load i32, ptr %10, align 4
  %37 = load i32, ptr %20, align 4
  %38 = add i32 %36, %37
  store i32 %38, ptr %15, align 4
  %39 = load i8, ptr %16, align 1
  %40 = sext i8 %39 to i32
  %41 = icmp ne i32 %40, 0
  br i1 %41, label %45, label %42

42:                                               ; preds = %6
  %43 = load i32, ptr %19, align 4
  %44 = icmp ne i32 %43, 4
  br i1 %44, label %45, label %61

45:                                               ; preds = %42, %6
  %46 = load ptr, ptr %12, align 8
  %47 = load ptr, ptr %11, align 8
  %48 = getelementptr inbounds %struct._asn1_ctx_t, ptr %47, i32 0, i32 3
  %49 = load ptr, ptr %48, align 8
  %50 = load ptr, ptr %9, align 8
  %51 = load i32, ptr %10, align 4
  %52 = sub i32 %51, 2
  %53 = load i8, ptr %16, align 1
  %54 = sext i8 %53 to i32
  %55 = load i8, ptr %17, align 1
  %56 = trunc i8 %55 to i1
  %57 = zext i1 %56 to i32
  %58 = load i32, ptr %19, align 4
  %59 = call ptr (ptr, ptr, ptr, ptr, i32, i32, ptr, ...) @proto_tree_add_expert_format(ptr noundef %46, ptr noundef %49, ptr noundef @ei_h248_octet_string_expected, ptr noundef %50, i32 noundef %52, i32 noundef 2, ptr noundef @.str.1319, i32 noundef %54, i32 noundef %57, i32 noundef %58)
  %60 = load i32, ptr %15, align 4
  store i32 %60, ptr %7, align 4
  br label %96

61:                                               ; preds = %42
  %62 = load ptr, ptr %9, align 8
  %63 = load i32, ptr %10, align 4
  %64 = load i32, ptr %20, align 4
  %65 = call ptr @tvb_new_subset_length(ptr noundef %62, i32 noundef %63, i32 noundef %64)
  store ptr %65, ptr %14, align 8
  %66 = getelementptr inbounds %struct._h248_curr_info_t, ptr @curr_info, i32 0, i32 9
  %67 = load ptr, ptr %66, align 8
  %68 = icmp ne ptr %67, null
  br i1 %68, label %69, label %94

69:                                               ; preds = %61
  %70 = getelementptr inbounds %struct._h248_curr_info_t, ptr @curr_info, i32 0, i32 9
  %71 = load ptr, ptr %70, align 8
  %72 = getelementptr inbounds %struct._h248_pkg_param_t, ptr %71, i32 0, i32 2
  %73 = load ptr, ptr %72, align 8
  %74 = icmp ne ptr %73, null
  br i1 %74, label %75, label %94

75:                                               ; preds = %69
  %76 = getelementptr inbounds %struct._h248_curr_info_t, ptr @curr_info, i32 0, i32 9
  %77 = load ptr, ptr %76, align 8
  %78 = getelementptr inbounds %struct._h248_pkg_param_t, ptr %77, i32 0, i32 2
  %79 = load ptr, ptr %78, align 8
  %80 = load ptr, ptr %12, align 8
  %81 = load ptr, ptr %14, align 8
  %82 = load ptr, ptr %11, align 8
  %83 = getelementptr inbounds %struct._asn1_ctx_t, ptr %82, i32 0, i32 3
  %84 = load ptr, ptr %83, align 8
  %85 = getelementptr inbounds %struct._h248_curr_info_t, ptr @curr_info, i32 0, i32 9
  %86 = load ptr, ptr %85, align 8
  %87 = getelementptr inbounds %struct._h248_pkg_param_t, ptr %86, i32 0, i32 1
  %88 = load ptr, ptr %87, align 8
  %89 = load i32, ptr %88, align 4
  %90 = getelementptr inbounds %struct._h248_curr_info_t, ptr @curr_info, i32 0, i32 9
  %91 = load ptr, ptr %90, align 8
  %92 = getelementptr inbounds %struct._h248_pkg_param_t, ptr %91, i32 0, i32 3
  %93 = load ptr, ptr %92, align 8
  call void %79(ptr noundef %80, ptr noundef %81, ptr noundef %84, i32 noundef %89, ptr noundef @curr_info, ptr noundef %93)
  br label %94

94:                                               ; preds = %75, %69, %61
  %95 = load i32, ptr %15, align 4
  store i32 %95, ptr %7, align 4
  br label %96

96:                                               ; preds = %94, %45
  %97 = load i32, ptr %7, align 4
  ret i32 %97
}