; Function Attrs: nounwind uwtable
define internal i32 @dissect_h248_EventParamValue(i1 zeroext %0, ptr noundef %1, i32 noundef %2, ptr noundef readonly captures(none) %3, ptr noundef %4, i32 %5) #0 {
  %7 = alloca i8, align 1
  %8 = alloca i8, align 1
  %9 = alloca i8, align 1
  %10 = alloca i32, align 4
  %11 = alloca i32, align 4
  %12 = getelementptr inbounds nuw i8, ptr %3, i64 16
  %13 = load ptr, ptr %12, align 8
  %14 = call i32 @dissect_ber_identifier(ptr noundef %13, ptr noundef %4, ptr noundef %1, i32 noundef %2, ptr noundef nonnull %7, ptr noundef nonnull %8, ptr noundef nonnull %10) #7
  %15 = load ptr, ptr %12, align 8
  %16 = call i32 @dissect_ber_length(ptr noundef %15, ptr noundef %4, ptr noundef %1, i32 noundef %14, ptr noundef nonnull %11, ptr noundef nonnull %9) #7
  %17 = load i32, ptr %11, align 4
  %18 = load i8, ptr %7, align 1
  %19 = icmp ne i8 %18, 0
  %20 = load i32, ptr %10, align 4
  %21 = icmp ne i32 %20, 4
  %or.cond = select i1 %19, i1 true, i1 %21
  br i1 %or.cond, label %22, label %30

22:                                               ; preds = %6
  %23 = sext i8 %18 to i32
  %24 = load ptr, ptr %12, align 8
  %25 = add i32 %16, -2
  %26 = load i8, ptr %8, align 1
  %27 = and i8 %26, 1
  %28 = zext nneg i8 %27 to i32
  %29 = call ptr (ptr, ptr, ptr, ptr, i32, i32, ptr, ...) @proto_tree_add_expert_format(ptr noundef %4, ptr noundef %24, ptr noundef nonnull @ei_h248_octet_string_expected, ptr noundef %1, i32 noundef %25, i32 noundef 2, ptr noundef nonnull @.str.1319, i32 noundef %23, i32 noundef %28, i32 noundef %20) #7
  br label %43

30:                                               ; preds = %6
  %31 = call ptr @tvb_new_subset_length(ptr noundef %1, i32 noundef %16, i32 noundef %17) #7
  %32 = load ptr, ptr getelementptr inbounds nuw (i8, ptr @curr_info, i64 72), align 8
  %.not = icmp eq ptr %32, null
  br i1 %.not, label %43, label %33

33:                                               ; preds = %30
  %34 = getelementptr inbounds nuw i8, ptr %32, i64 16
  %35 = load ptr, ptr %34, align 8
  %.not22 = icmp eq ptr %35, null
  br i1 %.not22, label %43, label %36

36:                                               ; preds = %33
  %37 = load ptr, ptr %12, align 8
  %38 = getelementptr inbounds nuw i8, ptr %32, i64 8
  %39 = load ptr, ptr %38, align 8
  %40 = load i32, ptr %39, align 4
  %41 = getelementptr inbounds nuw i8, ptr %32, i64 24
  %42 = load ptr, ptr %41, align 8
  call void %35(ptr noundef %4, ptr noundef %31, ptr noundef %37, i32 noundef %40, ptr noundef nonnull @curr_info, ptr noundef %42) #7
  br label %43

43:                                               ; preds = %30, %33, %36, %22
  %44 = add i32 %17, %16
  ret i32 %44
}